target datalayout = "e-m:e-p270:32:32-p271:32:32-p272:64:64-i64:64-i128:128-f80:128-n8:16:32:64-S128"
target triple = "x86_64-pc-linux-gnu"

%"class.google::protobuf::internal::InternalMetadata" = type { i64 }
%"class.google::protobuf::internal::HasBits" = type { [1 x i32] }
%"struct.google::protobuf::internal::ArenaStringPtr" = type { %"class.google::protobuf::internal::TaggedPtr" }
%"class.google::protobuf::internal::TaggedPtr" = type { ptr }
%"class.google::protobuf::Message" = type { %"class.google::protobuf::MessageLite" }
%"class.google::protobuf::MessageLite" = type { ptr, %"class.google::protobuf::internal::InternalMetadata" }
%"struct.std::atomic" = type { %"struct.std::__atomic_base" }
%"struct.std::__atomic_base" = type { i32 }
%"class.google::protobuf::internal::CachedSize" = type { %"struct.std::atomic" }
%"class.std::__cxx11::basic_string" = type { %"struct.std::__cxx11::basic_string<char>::_Alloc_hider", i64, %union.anon.88 }
%"struct.std::__cxx11::basic_string<char>::_Alloc_hider" = type { ptr }
%union.anon.88 = type { i64, [8 x i8] }
%"class.opencv_caffe::ParamSpec" = type <{ %"class.google::protobuf::Message", %"class.google::protobuf::internal::HasBits", %"class.google::protobuf::internal::CachedSize", %"struct.google::protobuf::internal::ArenaStringPtr", i32, float, float, [4 x i8] }>

; Function Attrs: mustprogress nounwind uwtable
define linkonce_odr hidden noundef i32 @_ZN6google8protobuf4Bits18Log2FloorNonZero64Em(i64 noundef %0) #5 comdat align 2 {
  %2 = alloca i64, align 8
  store i64 %0, ptr %2, align 8, !tbaa !59
  %3 = load i64, ptr %2, align 8, !tbaa !59
  %4 = call i64 @llvm.ctlz.i64(i64 %3, i1 true)
  %5 = trunc i64 %4 to i32
  %6 = xor i32 63, %5
  ret i32 %6
}

; Function Attrs: mustprogress nounwind uwtable
define linkonce_odr hidden noundef i32 @_ZN6google8protobuf4Bits16Log2FloorNonZeroEj(i32 noundef %0) #5 comdat align 2 {
  %2 = alloca i32, align 4
  store i32 %0, ptr %2, align 4, !tbaa !8
  %3 = load i32, ptr %2, align 4, !tbaa !8
  %4 = call i32 @llvm.ctlz.i32(i32 %3, i1 true)
  %5 = xor i32 31, %4
  ret i32 %5
}

; Function Attrs: mustprogress nounwind uwtable
define linkonce_odr hidden noundef i64 @_ZNK6google8protobuf8internal9TaggedPtrINSt7__cxx1112basic_stringIcSt11char_traitsIcESaIcEEEE6as_intEv(ptr noundef nonnull align 8 dereferenceable(8) %0) #5 comdat align 2 {
  %2 = alloca ptr, align 8
  store ptr %0, ptr %2, align 8, !tbaa !1457
  %3 = load ptr, ptr %2, align 8
  %4 = getelementptr inbounds nuw %"class.google::protobuf::internal::TaggedPtr", ptr %3, i32 0, i32 0
  %5 = load ptr, ptr %4, align 8, !tbaa !1459
  %6 = ptrtoint ptr %5 to i64
  ret i64 %6
}

; Function Attrs: inlinehint mustprogress uwtable
define linkonce_odr hidden noundef i64 @_ZN6google8protobuf2io17CodedOutputStream12VarintSize64Em(i64 noundef %0) #6 comdat align 2 {
  %2 = alloca i64, align 8
  %3 = alloca i32, align 4
  store i64 %0, ptr %2, align 8, !tbaa !59
  call void @llvm.lifetime.start.p0(i64 4, ptr %3) #3
  %4 = load i64, ptr %2, align 8, !tbaa !59
  %5 = or i64 %4, 1
  %6 = call noundef i32 @_ZN6google8protobuf4Bits18Log2FloorNonZero64Em(i64 noundef %5)
  store i32 %6, ptr %3, align 4, !tbaa !8
  %7 = load i32, ptr %3, align 4, !tbaa !8
  %8 = mul i32 %7, 9
  %9 = add i32 %8, 73
  %10 = udiv i32 %9, 64
  %11 = zext i32 %10 to i64
  call void @llvm.lifetime.end.p0(i64 4, ptr %3) #3
  ret i64 %11
}

; Function Attrs: inlinehint mustprogress uwtable
define linkonce_odr hidden noundef i64 @_ZN6google8protobuf2io17CodedOutputStream12VarintSize32Ej(i32 noundef %0) #6 comdat align 2 {
  %2 = alloca i32, align 4
  %3 = alloca i32, align 4
  store i32 %0, ptr %2, align 4, !tbaa !8
  call void @llvm.lifetime.start.p0(i64 4, ptr %3) #3
  %4 = load i32, ptr %2, align 4, !tbaa !8
  %5 = or i32 %4, 1
  %6 = call noundef i32 @_ZN6google8protobuf4Bits16Log2FloorNonZeroEj(i32 noundef %5)
  store i32 %6, ptr %3, align 4, !tbaa !8
  %7 = load i32, ptr %3, align 4, !tbaa !8
  %8 = mul i32 %7, 9
  %9 = add i32 %8, 73
  %10 = udiv i32 %9, 64
  %11 = zext i32 %10 to i64
  call void @llvm.lifetime.end.p0(i64 4, ptr %3) #3
  ret i64 %11
}

; Function Attrs: mustprogress uwtable
define linkonce_odr hidden noundef ptr @_ZNK6google8protobuf8internal9TaggedPtrINSt7__cxx1112basic_stringIcSt11char_traitsIcESaIcEEEE3GetEv(ptr noundef nonnull align 8 dereferenceable(8) %0) #4 comdat align 2 {
  %2 = alloca ptr, align 8
  store ptr %0, ptr %2, align 8, !tbaa !1457
  %3 = load ptr, ptr %2, align 8
  %4 = call noundef i64 @_ZNK6google8protobuf8internal9TaggedPtrINSt7__cxx1112basic_stringIcSt11char_traitsIcESaIcEEEE6as_intEv(ptr noundef nonnull align 8 dereferenceable(8) %3)
  %5 = and i64 %4, -2
  %6 = inttoptr i64 %5 to ptr
  ret ptr %6
}

; Function Attrs: inlinehint mustprogress uwtable
define linkonce_odr hidden noundef i64 @_ZN6google8protobuf2io17CodedOutputStream24VarintSize32SignExtendedEi(i32 noundef %0) #6 comdat align 2 {
  %2 = alloca i32, align 4
  store i32 %0, ptr %2, align 4, !tbaa !8
  %3 = load i32, ptr %2, align 4, !tbaa !8
  %4 = sext i32 %3 to i64
  %5 = call noundef i64 @_ZN6google8protobuf2io17CodedOutputStream12VarintSize64Em(i64 noundef %4)
  ret i64 %5
}

; Function Attrs: inlinehint mustprogress uwtable
define linkonce_odr hidden noundef i64 @_ZN6google8protobuf8internal14WireFormatLite19LengthDelimitedSizeEm(i64 noundef %0) #6 comdat align 2 {
  %2 = alloca i64, align 8
  store i64 %0, ptr %2, align 8, !tbaa !59
  %3 = load i64, ptr %2, align 8, !tbaa !59
  %4 = load i64, ptr %2, align 8, !tbaa !59
  %5 = trunc i64 %4 to i32
  %6 = call noundef i64 @_ZN6google8protobuf2io17CodedOutputStream12VarintSize32Ej(i32 noundef %5)
  %7 = add i64 %3, %6
  ret i64 %7
}

; Function Attrs: mustprogress nounwind uwtable
define available_externally noundef i64 @_ZNKSt7__cxx1112basic_stringIcSt11char_traitsIcESaIcEE4sizeEv(ptr noundef nonnull align 8 dereferenceable(32) %0) #5 align 2 {
  %2 = alloca ptr, align 8
  store ptr %0, ptr %2, align 8, !tbaa !102
  %3 = load ptr, ptr %2, align 8
  %4 = getelementptr inbounds nuw %"class.std::__cxx11::basic_string", ptr %3, i32 0, i32 1
  %5 = load i64, ptr %4, align 8, !tbaa !273
  ret i64 %5
}

; Function Attrs: alwaysinline mustprogress uwtable
define linkonce_odr hidden noundef nonnull align 8 dereferenceable(32) ptr @_ZNK6google8protobuf8internal14ArenaStringPtr3GetB5cxx11Ev(ptr noundef nonnull align 8 dereferenceable(8) %0) #8 comdat align 2 {
  %2 = alloca ptr, align 8
  store ptr %0, ptr %2, align 8, !tbaa !100
  %3 = load ptr, ptr %2, align 8
  %4 = getelementptr inbounds nuw %"struct.google::protobuf::internal::ArenaStringPtr", ptr %3, i32 0, i32 0
  %5 = call noundef ptr @_ZNK6google8protobuf8internal9TaggedPtrINSt7__cxx1112basic_stringIcSt11char_traitsIcESaIcEEEE3GetEv(ptr noundef nonnull align 8 dereferenceable(8) %4)
  ret ptr %5
}

; Function Attrs: inlinehint mustprogress uwtable
define linkonce_odr hidden noundef i64 @_ZN6google8protobuf8internal14WireFormatLite8EnumSizeEi(i32 noundef %0) #6 comdat align 2 {
  %2 = alloca i32, align 4
  store i32 %0, ptr %2, align 4, !tbaa !8
  %3 = load i32, ptr %2, align 4, !tbaa !8
  %4 = call noundef i64 @_ZN6google8protobuf2io17CodedOutputStream24VarintSize32SignExtendedEi(i32 noundef %3)
  ret i64 %4
}

; Function Attrs: inlinehint mustprogress nounwind uwtable
define linkonce_odr hidden noundef i32 @_ZNK12opencv_caffe9ParamSpec20_internal_share_modeEv(ptr noundef nonnull align 8 dereferenceable(48) %0) #7 comdat align 2 {
  %2 = alloca ptr, align 8
  store ptr %0, ptr %2, align 8, !tbaa !455
  %3 = load ptr, ptr %2, align 8
  %4 = getelementptr inbounds nuw %"class.opencv_caffe::ParamSpec", ptr %3, i32 0, i32 4
  %5 = load i32, ptr %4, align 8, !tbaa !457
  ret i32 %5
}

; Function Attrs: inlinehint mustprogress uwtable
define linkonce_odr hidden noundef i64 @_ZN6google8protobuf8internal14WireFormatLite10StringSizeERKNSt7__cxx1112basic_stringIcSt11char_traitsIcESaIcEEE(ptr noundef nonnull align 8 dereferenceable(32) %0) #6 comdat align 2 {
  %2 = alloca ptr, align 8
  store ptr %0, ptr %2, align 8, !tbaa !102
  %3 = load ptr, ptr %2, align 8, !tbaa !102
  %4 = call noundef i64 @_ZNKSt7__cxx1112basic_stringIcSt11char_traitsIcESaIcEE4sizeEv(ptr noundef nonnull align 8 dereferenceable(32) %3) #3
  %5 = call noundef i64 @_ZN6google8protobuf8internal14WireFormatLite19LengthDelimitedSizeEm(i64 noundef %4)
  ret i64 %5
}

; Function Attrs: inlinehint mustprogress uwtable
define linkonce_odr hidden noundef nonnull align 8 dereferenceable(32) ptr @_ZNK12opencv_caffe9ParamSpec14_internal_nameB5cxx11Ev(ptr noundef nonnull align 8 dereferenceable(48) %0) #6 comdat align 2 {
  %2 = alloca ptr, align 8
  store ptr %0, ptr %2, align 8, !tbaa !455
  %3 = load ptr, ptr %2, align 8
  %4 = getelementptr inbounds nuw %"class.opencv_caffe::ParamSpec", ptr %3, i32 0, i32 3
  %5 = call noundef nonnull align 8 dereferenceable(32) ptr @_ZNK6google8protobuf8internal14ArenaStringPtr3GetB5cxx11Ev(ptr noundef nonnull align 8 dereferenceable(8) %4)
  ret ptr %5
}

; Function Attrs: alwaysinline mustprogress nounwind uwtable
define linkonce_odr hidden noundef nonnull align 4 dereferenceable(4) ptr @_ZNK6google8protobuf8internal7HasBitsILm1EEixEi(ptr noundef nonnull align 4 dereferenceable(4) %0, i32 noundef %1) #13 comdat align 2 {
  %3 = alloca ptr, align 8
  %4 = alloca i32, align 4
  store ptr %0, ptr %3, align 8, !tbaa !87
  store i32 %1, ptr %4, align 4, !tbaa !8
  %5 = load ptr, ptr %3, align 8
  %6 = getelementptr inbounds nuw %"class.google::protobuf::internal::HasBits", ptr %5, i32 0, i32 0
  %7 = load i32, ptr %4, align 4, !tbaa !8
  %8 = sext i32 %7 to i64
  %9 = getelementptr inbounds [1 x i32], ptr %6, i64 0, i64 %8
  ret ptr %9
}

; Function Attrs: mustprogress uwtable
define hidden noundef i64 @_ZNK12opencv_caffe9ParamSpec12ByteSizeLongEv(ptr noundef nonnull align 8 dereferenceable(48) %0) unnamed_addr #4 align 2 {
  %2 = alloca ptr, align 8
  %3 = alloca i64, align 8
  %4 = alloca i32, align 4
  store ptr %0, ptr %2, align 8, !tbaa !455
  %5 = load ptr, ptr %2, align 8
  call void @llvm.lifetime.start.p0(i64 8, ptr %3) #3
  store i64 0, ptr %3, align 8, !tbaa !59
  call void @llvm.lifetime.start.p0(i64 4, ptr %4) #3
  store i32 0, ptr %4, align 4, !tbaa !8
  %6 = getelementptr inbounds nuw %"class.opencv_caffe::ParamSpec", ptr %5, i32 0, i32 1
  %7 = call noundef nonnull align 4 dereferenceable(4) ptr @_ZNK6google8protobuf8internal7HasBitsILm1EEixEi(ptr noundef nonnull align 4 dereferenceable(4) %6, i32 noundef 0)
  %8 = load i32, ptr %7, align 4, !tbaa !8
  store i32 %8, ptr %4, align 4, !tbaa !8
  %9 = load i32, ptr %4, align 4, !tbaa !8
  %10 = and i32 %9, 15
  %11 = icmp ne i32 %10, 0
  br i1 %11, label %12, label %47

12:                                               ; preds = %1
  %13 = load i32, ptr %4, align 4, !tbaa !8
  %14 = and i32 %13, 1
  %15 = icmp ne i32 %14, 0
  br i1 %15, label %16, label %22

16:                                               ; preds = %12
  %17 = call noundef nonnull align 8 dereferenceable(32) ptr @_ZNK12opencv_caffe9ParamSpec14_internal_nameB5cxx11Ev(ptr noundef nonnull align 8 dereferenceable(48) %5)
  %18 = call noundef i64 @_ZN6google8protobuf8internal14WireFormatLite10StringSizeERKNSt7__cxx1112basic_stringIcSt11char_traitsIcESaIcEEE(ptr noundef nonnull align 8 dereferenceable(32) %17)
  %19 = add i64 1, %18
  %20 = load i64, ptr %3, align 8, !tbaa !59
  %21 = add i64 %20, %19
  store i64 %21, ptr %3, align 8, !tbaa !59
  br label %22

22:                                               ; preds = %16, %12
  %23 = load i32, ptr %4, align 4, !tbaa !8
  %24 = and i32 %23, 2
  %25 = icmp ne i32 %24, 0
  br i1 %25, label %26, label %32

26:                                               ; preds = %22
  %27 = call noundef i32 @_ZNK12opencv_caffe9ParamSpec20_internal_share_modeEv(ptr noundef nonnull align 8 dereferenceable(48) %5)
  %28 = call noundef i64 @_ZN6google8protobuf8internal14WireFormatLite8EnumSizeEi(i32 noundef %27)
  %29 = add i64 1, %28
  %30 = load i64, ptr %3, align 8, !tbaa !59
  %31 = add i64 %30, %29
  store i64 %31, ptr %3, align 8, !tbaa !59
  br label %32

32:                                               ; preds = %26, %22
  %33 = load i32, ptr %4, align 4, !tbaa !8
  %34 = and i32 %33, 4
  %35 = icmp ne i32 %34, 0
  br i1 %35, label %36, label %39

36:                                               ; preds = %32
  %37 = load i64, ptr %3, align 8, !tbaa !59
  %38 = add i64 %37, 5
  store i64 %38, ptr %3, align 8, !tbaa !59
  br label %39

39:                                               ; preds = %36, %32
  %40 = load i32, ptr %4, align 4, !tbaa !8
  %41 = and i32 %40, 8
  %42 = icmp ne i32 %41, 0
  br i1 %42, label %43, label %46

43:                                               ; preds = %39
  %44 = load i64, ptr %3, align 8, !tbaa !59
  %45 = add i64 %44, 5
  store i64 %45, ptr %3, align 8, !tbaa !59
  br label %46

46:                                               ; preds = %43, %39
  br label %47

47:                                               ; preds = %46, %1
  %48 = load i64, ptr %3, align 8, !tbaa !59
  %49 = getelementptr inbounds nuw %"class.opencv_caffe::ParamSpec", ptr %5, i32 0, i32 2
  %50 = call noundef i64 @_ZNK6google8protobuf7Message29MaybeComputeUnknownFieldsSizeEmPNS0_8internal10CachedSizeE(ptr noundef nonnull align 8 dereferenceable(16) %5, i64 noundef %48, ptr noundef %49)
  call void @llvm.lifetime.end.p0(i64 4, ptr %4) #3
  call void @llvm.lifetime.end.p0(i64 8, ptr %3) #3
  ret i64 %50
}