; Function Attrs: mustprogress uwtable
define hidden noundef i64 @_ZNK12opencv_caffe9ParamSpec12ByteSizeLongEv(ptr noundef nonnull align 8 dereferenceable(48) %0) unnamed_addr #3 align 2 {
  %2 = getelementptr inbounds nuw i8, ptr %0, i64 16
  %3 = load i32, ptr %2, align 8, !tbaa !71
  %4 = and i32 %3, 15
  %.not = icmp eq i32 %4, 0
  br i1 %.not, label %44, label %5

5:                                                ; preds = %1
  %6 = and i32 %3, 1
  %.not10 = icmp eq i32 %6, 0
  br i1 %.not10, label %25, label %7

7:                                                ; preds = %5
  %8 = getelementptr inbounds nuw i8, ptr %0, i64 24
  %9 = load ptr, ptr %8, align 8, !tbaa !70
  %10 = ptrtoint ptr %9 to i64
  %11 = and i64 %10, -2
  %12 = inttoptr i64 %11 to ptr
  %13 = getelementptr inbounds nuw i8, ptr %12, i64 8
  %14 = load i64, ptr %13, align 8, !tbaa !72
  %15 = trunc i64 %14 to i32
  %16 = or i32 %15, 1
  %17 = tail call range(i32 0, 33) i32 @llvm.ctlz.i32(i32 %16, i1 true)
  %18 = xor i32 %17, 31
  %19 = mul nuw nsw i32 %18, 9
  %20 = add nuw nsw i32 %19, 73
  %21 = lshr i32 %20, 6
  %22 = zext nneg i32 %21 to i64
  %23 = add i64 %14, 1
  %24 = add i64 %23, %22
  br label %25

25:                                               ; preds = %7, %5
  %.1 = phi i64 [ %24, %7 ], [ 0, %5 ]
  %26 = and i32 %3, 2
  %.not11 = icmp eq i32 %26, 0
  br i1 %.not11, label %39, label %27

27:                                               ; preds = %25
  %28 = getelementptr inbounds nuw i8, ptr %0, i64 32
  %29 = load i32, ptr %28, align 8, !tbaa !366
  %30 = or i32 %29, 1
  %31 = sext i32 %30 to i64
  %32 = tail call range(i64 0, 65) i64 @llvm.ctlz.i64(i64 %31, i1 true)
  %33 = xor i64 %32, 63
  %34 = mul nuw nsw i64 %33, 9
  %35 = add nuw nsw i64 %34, 73
  %36 = lshr i64 %35, 6
  %37 = add i64 %.1, 1
  %38 = add i64 %37, %36
  br label %39

39:                                               ; preds = %27, %25
  %.2 = phi i64 [ %38, %27 ], [ %.1, %25 ]
  %40 = and i32 %3, 4
  %.not12 = icmp eq i32 %40, 0
  %41 = add i64 %.2, 5
  %spec.select = select i1 %.not12, i64 %.2, i64 %41
  %42 = and i32 %3, 8
  %.not13 = icmp eq i32 %42, 0
  %43 = add i64 %spec.select, 5
  %spec.select14 = select i1 %.not13, i64 %spec.select, i64 %43
  br label %44

44:                                               ; preds = %39, %1
  %.0 = phi i64 [ 0, %1 ], [ %spec.select14, %39 ]
  %45 = getelementptr inbounds nuw i8, ptr %0, i64 20
  %46 = tail call noundef i64 @_ZNK6google8protobuf7Message29MaybeComputeUnknownFieldsSizeEmPNS0_8internal10CachedSizeE(ptr noundef nonnull align 8 dereferenceable(16) %0, i64 noundef %.0, ptr noundef nonnull %45)
  ret i64 %46
}